; Function Attrs: nounwind uwtable
define internal i32 @fold_kfold_strto(ptr noundef %0) #0 {
  %2 = alloca %union.TValue, align 8
  call void @llvm.lifetime.start.p0(i64 8, ptr nonnull %2) #12
  %3 = getelementptr inbounds nuw i8, ptr %0, i64 200
  %4 = load i64, ptr %3, align 8, !tbaa !28
  %5 = inttoptr i64 %4 to ptr
  %6 = call i32 @lj_strscan_num(ptr noundef %5, ptr noundef nonnull %2) #12
  %.not = icmp eq i32 %6, 0
  br i1 %.not, label %10, label %7

7:                                                ; preds = %1
  %8 = load i64, ptr %2, align 8, !tbaa !28
  %9 = call i32 @lj_ir_knum_u64(ptr noundef nonnull %0, i64 noundef %8) #12
  br label %10

10:                                               ; preds = %1, %7
  %.0 = phi i32 [ %9, %7 ], [ 3, %1 ]
  call void @llvm.lifetime.end.p0(i64 8, ptr nonnull %2) #12
  ret i32 %.0
}